target datalayout = "e-m:e-p270:32:32-p271:32:32-p272:64:64-i64:64-i128:128-f80:128-n8:16:32:64-S128"
target triple = "x86_64-pc-linux-gnu"

%struct.SMgrRelationData = type { %struct.RelFileLocatorBackend, i32, [4 x i32], i32, [4 x i32], [4 x ptr], i32, %struct.dlist_node }
%struct.RelFileLocatorBackend = type { %struct.RelFileLocator, i32 }
%struct.RelFileLocator = type { i32, i32, i32 }
%struct.dlist_node = type { ptr, ptr }
%struct._MdfdVec = type { i32, i32 }
%struct.iovec = type { ptr, i64 }

@.str.2 = private unnamed_addr constant [5 x i8] c"md.c\00", align 1
@.str.3 = private unnamed_addr constant [41 x i8] c"cannot extend file \22%s\22 beyond %u blocks\00", align 1
@__func__.mdextend = private unnamed_addr constant [9 x i8] c"mdextend\00", align 1
@.str.4 = private unnamed_addr constant [31 x i8] c"could not extend file \22%s\22: %m\00", align 1
@.str.5 = private unnamed_addr constant [23 x i8] c"Check free disk space.\00", align 1
@.str.6 = private unnamed_addr constant [66 x i8] c"could not extend file \22%s\22: wrote only %d of %d bytes at block %u\00", align 1

; Function Attrs: inlinehint nounwind uwtable
define internal i64 @FileWrite(i32 noundef %0, ptr noundef %1, i64 noundef %2, i64 noundef %3, i32 noundef %4) #3 {
  %6 = alloca i32, align 4
  %7 = alloca ptr, align 8
  %8 = alloca i64, align 8
  %9 = alloca i64, align 8
  %10 = alloca i32, align 4
  %11 = alloca %struct.iovec, align 8
  %12 = alloca i32, align 4
  store i32 %0, ptr %6, align 4
  store ptr %1, ptr %7, align 8
  store i64 %2, ptr %8, align 8
  store i64 %3, ptr %9, align 8
  store i32 %4, ptr %10, align 4
  call void @llvm.lifetime.start.p0(i64 16, ptr %11) #10
  %13 = getelementptr inbounds nuw %struct.iovec, ptr %11, i32 0, i32 0
  br label %14

14:                                               ; preds = %5
  br label %15

15:                                               ; preds = %14
  br label %16

16:                                               ; preds = %15
  store i32 1, ptr %12, align 4
  %17 = load ptr, ptr %7, align 8
  store ptr %17, ptr %13, align 8
  %18 = getelementptr inbounds nuw %struct.iovec, ptr %11, i32 0, i32 1
  %19 = load i64, ptr %8, align 8
  store i64 %19, ptr %18, align 8
  %20 = load i32, ptr %6, align 4
  %21 = load i64, ptr %9, align 8
  %22 = load i32, ptr %10, align 4
  %23 = call i64 @FileWriteV(i32 noundef %20, ptr noundef %11, i32 noundef 1, i64 noundef %21, i32 noundef %22)
  call void @llvm.lifetime.end.p0(i64 16, ptr %11) #10
  ret i64 %23
}

; Function Attrs: nounwind uwtable
define dso_local void @mdextend(ptr noundef %0, i32 noundef %1, i32 noundef %2, ptr noundef %3, i1 noundef zeroext %4) #0 {
  %6 = alloca ptr, align 8
  %7 = alloca i32, align 4
  %8 = alloca i32, align 4
  %9 = alloca ptr, align 8
  %10 = alloca i8, align 1
  %11 = alloca i64, align 8
  %12 = alloca i32, align 4
  %13 = alloca ptr, align 8
  store ptr %0, ptr %6, align 8
  store i32 %1, ptr %7, align 4
  store i32 %2, ptr %8, align 4
  store ptr %3, ptr %9, align 8
  %14 = zext i1 %4 to i8
  store i8 %14, ptr %10, align 1
  call void @llvm.lifetime.start.p0(i64 8, ptr %11) #10
  call void @llvm.lifetime.start.p0(i64 4, ptr %12) #10
  call void @llvm.lifetime.start.p0(i64 8, ptr %13) #10
  %15 = load i32, ptr %8, align 4
  %16 = icmp eq i32 %15, -1
  br i1 %16, label %17, label %50

17:                                               ; preds = %5
  br label %18

18:                                               ; preds = %17
  br i1 true, label %19, label %21

19:                                               ; preds = %18
  %20 = call zeroext i1 @errstart_cold(i32 noundef 21, ptr noundef null) #12
  br i1 %20, label %23, label %47

21:                                               ; preds = %18
  %22 = call zeroext i1 @errstart(i32 noundef 21, ptr noundef null)
  br i1 %22, label %23, label %47

23:                                               ; preds = %21, %19
  %24 = call i32 @errcode(i32 noundef 261)
  %25 = load ptr, ptr %6, align 8
  %26 = getelementptr inbounds nuw %struct.SMgrRelationData, ptr %25, i32 0, i32 0
  %27 = getelementptr inbounds nuw %struct.RelFileLocatorBackend, ptr %26, i32 0, i32 0
  %28 = getelementptr inbounds nuw %struct.RelFileLocator, ptr %27, i32 0, i32 1
  %29 = load i32, ptr %28, align 4
  %30 = load ptr, ptr %6, align 8
  %31 = getelementptr inbounds nuw %struct.SMgrRelationData, ptr %30, i32 0, i32 0
  %32 = getelementptr inbounds nuw %struct.RelFileLocatorBackend, ptr %31, i32 0, i32 0
  %33 = getelementptr inbounds nuw %struct.RelFileLocator, ptr %32, i32 0, i32 0
  %34 = load i32, ptr %33, align 8
  %35 = load ptr, ptr %6, align 8
  %36 = getelementptr inbounds nuw %struct.SMgrRelationData, ptr %35, i32 0, i32 0
  %37 = getelementptr inbounds nuw %struct.RelFileLocatorBackend, ptr %36, i32 0, i32 0
  %38 = getelementptr inbounds nuw %struct.RelFileLocator, ptr %37, i32 0, i32 2
  %39 = load i32, ptr %38, align 8
  %40 = load ptr, ptr %6, align 8
  %41 = getelementptr inbounds nuw %struct.SMgrRelationData, ptr %40, i32 0, i32 0
  %42 = getelementptr inbounds nuw %struct.RelFileLocatorBackend, ptr %41, i32 0, i32 1
  %43 = load i32, ptr %42, align 4
  %44 = load i32, ptr %7, align 4
  %45 = call ptr @GetRelationPath(i32 noundef %29, i32 noundef %34, i32 noundef %39, i32 noundef %43, i32 noundef %44)
  %46 = call i32 (ptr, ...) @errmsg(ptr noundef @.str.3, ptr noundef %45, i32 noundef -1)
  call void @errfinish(ptr noundef @.str.2, i32 noundef 479, ptr noundef @__func__.mdextend)
  br label %47

47:                                               ; preds = %23, %21, %19
  unreachable

48:                                               ; No predecessors!
  br label %49

49:                                               ; preds = %48
  br label %50

50:                                               ; preds = %49, %5
  %51 = load ptr, ptr %6, align 8
  %52 = load i32, ptr %7, align 4
  %53 = load i32, ptr %8, align 4
  %54 = load i8, ptr %10, align 1, !range !4, !noundef !5
  %55 = trunc i8 %54 to i1
  %56 = call ptr @_mdfd_getseg(ptr noundef %51, i32 noundef %52, i32 noundef %53, i1 noundef zeroext %55, i32 noundef 4)
  store ptr %56, ptr %13, align 8
  %57 = load i32, ptr %8, align 4
  %58 = urem i32 %57, 131072
  %59 = zext i32 %58 to i64
  %60 = mul i64 8192, %59
  store i64 %60, ptr %11, align 8
  %61 = load ptr, ptr %13, align 8
  %62 = getelementptr inbounds nuw %struct._MdfdVec, ptr %61, i32 0, i32 0
  %63 = load i32, ptr %62, align 4
  %64 = load ptr, ptr %9, align 8
  %65 = load i64, ptr %11, align 8
  %66 = call i64 @FileWrite(i32 noundef %63, ptr noundef %64, i64 noundef 8192, i64 noundef %65, i32 noundef 167772173)
  %67 = trunc i64 %66 to i32
  store i32 %67, ptr %12, align 4
  %68 = icmp ne i32 %67, 8192
  br i1 %68, label %69, label %108

69:                                               ; preds = %50
  %70 = load i32, ptr %12, align 4
  %71 = icmp slt i32 %70, 0
  br i1 %71, label %72, label %89

72:                                               ; preds = %69
  br label %73

73:                                               ; preds = %72
  br i1 true, label %74, label %76

74:                                               ; preds = %73
  %75 = call zeroext i1 @errstart_cold(i32 noundef 21, ptr noundef null) #12
  br i1 %75, label %78, label %86

76:                                               ; preds = %73
  %77 = call zeroext i1 @errstart(i32 noundef 21, ptr noundef null)
  br i1 %77, label %78, label %86

78:                                               ; preds = %76, %74
  %79 = call i32 @errcode_for_file_access()
  %80 = load ptr, ptr %13, align 8
  %81 = getelementptr inbounds nuw %struct._MdfdVec, ptr %80, i32 0, i32 0
  %82 = load i32, ptr %81, align 4
  %83 = call ptr @FilePathName(i32 noundef %82)
  %84 = call i32 (ptr, ...) @errmsg(ptr noundef @.str.4, ptr noundef %83)
  %85 = call i32 (ptr, ...) @errhint(ptr noundef @.str.5)
  call void @errfinish(ptr noundef @.str.2, i32 noundef 494, ptr noundef @__func__.mdextend)
  br label %86

86:                                               ; preds = %78, %76, %74
  unreachable

87:                                               ; No predecessors!
  br label %88

88:                                               ; preds = %87
  br label %89

89:                                               ; preds = %88, %69
  br label %90

90:                                               ; preds = %89
  br i1 true, label %91, label %93

91:                                               ; preds = %90
  %92 = call zeroext i1 @errstart_cold(i32 noundef 21, ptr noundef null) #12
  br i1 %92, label %95, label %105

93:                                               ; preds = %90
  %94 = call zeroext i1 @errstart(i32 noundef 21, ptr noundef null)
  br i1 %94, label %95, label %105

95:                                               ; preds = %93, %91
  %96 = call i32 @errcode(i32 noundef 4293)
  %97 = load ptr, ptr %13, align 8
  %98 = getelementptr inbounds nuw %struct._MdfdVec, ptr %97, i32 0, i32 0
  %99 = load i32, ptr %98, align 4
  %100 = call ptr @FilePathName(i32 noundef %99)
  %101 = load i32, ptr %12, align 4
  %102 = load i32, ptr %8, align 4
  %103 = call i32 (ptr, ...) @errmsg(ptr noundef @.str.6, ptr noundef %100, i32 noundef %101, i32 noundef 8192, i32 noundef %102)
  %104 = call i32 (ptr, ...) @errhint(ptr noundef @.str.5)
  call void @errfinish(ptr noundef @.str.2, i32 noundef 501, ptr noundef @__func__.mdextend)
  br label %105

105:                                              ; preds = %95, %93, %91
  unreachable

106:                                              ; No predecessors!
  br label %107

107:                                              ; preds = %106
  br label %108

108:                                              ; preds = %107, %50
  %109 = load i8, ptr %10, align 1, !range !4, !noundef !5
  %110 = trunc i8 %109 to i1
  br i1 %110, label %121, label %111

111:                                              ; preds = %108
  %112 = load ptr, ptr %6, align 8
  %113 = getelementptr inbounds nuw %struct.SMgrRelationData, ptr %112, i32 0, i32 0
  %114 = getelementptr inbounds nuw %struct.RelFileLocatorBackend, ptr %113, i32 0, i32 1
  %115 = load i32, ptr %114, align 4
  %116 = icmp ne i32 %115, -1
  br i1 %116, label %121, label %117

117:                                              ; preds = %111
  %118 = load ptr, ptr %6, align 8
  %119 = load i32, ptr %7, align 4
  %120 = load ptr, ptr %13, align 8
  call void @register_dirty_segment(ptr noundef %118, i32 noundef %119, ptr noundef %120)
  br label %121

121:                                              ; preds = %117, %111, %108
  call void @llvm.lifetime.end.p0(i64 8, ptr %13) #10
  call void @llvm.lifetime.end.p0(i64 4, ptr %12) #10
  call void @llvm.lifetime.end.p0(i64 8, ptr %11) #10
  ret void
}