; Function Attrs: nounwind uwtable
define dso_local void @mdextend(ptr noundef captures(none) %0, i32 noundef %1, i32 noundef %2, ptr noundef %3, i1 noundef zeroext %4) local_unnamed_addr #0 {
  %6 = alloca %struct.iovec, align 8
  %7 = icmp eq i32 %2, -1
  br i1 %7, label %8, label %20

8:                                                ; preds = %5
  %9 = tail call zeroext i1 @errstart_cold(i32 noundef 21, ptr noundef null) #17
  tail call void @llvm.assume(i1 %9)
  %10 = tail call i32 @errcode(i32 noundef 261) #15
  %11 = getelementptr inbounds nuw i8, ptr %0, i64 4
  %12 = load i32, ptr %11, align 4
  %13 = load i32, ptr %0, align 8
  %14 = getelementptr inbounds nuw i8, ptr %0, i64 8
  %15 = load i32, ptr %14, align 8
  %16 = getelementptr inbounds nuw i8, ptr %0, i64 12
  %17 = load i32, ptr %16, align 4
  %18 = tail call ptr @GetRelationPath(i32 noundef %12, i32 noundef %13, i32 noundef %15, i32 noundef %17, i32 noundef %1) #15
  %19 = tail call i32 (ptr, ...) @errmsg(ptr noundef nonnull @.str.3, ptr noundef %18, i32 noundef -1) #15
  tail call void @errfinish(ptr noundef nonnull @.str.2, i32 noundef 479, ptr noundef nonnull @__func__.mdextend) #15
  unreachable

20:                                               ; preds = %5
  %21 = tail call fastcc ptr @_mdfd_getseg(ptr noundef %0, i32 noundef %1, i32 noundef %2, i1 noundef zeroext %4, i32 noundef 4)
  %22 = shl i32 %2, 13
  %23 = and i32 %22, 1073733632
  %24 = zext nneg i32 %23 to i64
  %25 = load i32, ptr %21, align 4
  call void @llvm.lifetime.start.p0(i64 16, ptr nonnull %6) #15
  store ptr %3, ptr %6, align 8
  %26 = getelementptr inbounds nuw i8, ptr %6, i64 8
  store i64 8192, ptr %26, align 8
  %27 = call i64 @FileWriteV(i32 noundef %25, ptr noundef nonnull %6, i32 noundef 1, i64 noundef range(i64 0, 1073733633) %24, i32 noundef 167772173) #15
  call void @llvm.lifetime.end.p0(i64 16, ptr nonnull %6) #15
  %28 = trunc i64 %27 to i32
  %.not = icmp eq i32 %28, 8192
  br i1 %.not, label %44, label %29

29:                                               ; preds = %20
  %30 = icmp slt i32 %28, 0
  %31 = call zeroext i1 @errstart_cold(i32 noundef 21, ptr noundef null) #17
  call void @llvm.assume(i1 %31)
  br i1 %30, label %32, label %38

32:                                               ; preds = %29
  %33 = call i32 @errcode_for_file_access() #15
  %34 = load i32, ptr %21, align 4
  %35 = call ptr @FilePathName(i32 noundef %34) #15
  %36 = call i32 (ptr, ...) @errmsg(ptr noundef nonnull @.str.4, ptr noundef %35) #15
  %37 = call i32 (ptr, ...) @errhint(ptr noundef nonnull @.str.5) #15
  call void @errfinish(ptr noundef nonnull @.str.2, i32 noundef 494, ptr noundef nonnull @__func__.mdextend) #15
  unreachable

38:                                               ; preds = %29
  %39 = call i32 @errcode(i32 noundef 4293) #15
  %40 = load i32, ptr %21, align 4
  %41 = call ptr @FilePathName(i32 noundef %40) #15
  %42 = call i32 (ptr, ...) @errmsg(ptr noundef nonnull @.str.6, ptr noundef %41, i32 noundef %28, i32 noundef 8192, i32 noundef %2) #15
  %43 = call i32 (ptr, ...) @errhint(ptr noundef nonnull @.str.5) #15
  call void @errfinish(ptr noundef nonnull @.str.2, i32 noundef 501, ptr noundef nonnull @__func__.mdextend) #15
  unreachable

44:                                               ; preds = %20
  br i1 %4, label %49, label %45

45:                                               ; preds = %44
  %46 = getelementptr inbounds nuw i8, ptr %0, i64 12
  %47 = load i32, ptr %46, align 4
  %.not24 = icmp eq i32 %47, -1
  br i1 %.not24, label %48, label %49

48:                                               ; preds = %45
  call fastcc void @register_dirty_segment(ptr noundef nonnull %0, i32 noundef %1, ptr noundef nonnull %21)
  br label %49

49:                                               ; preds = %48, %45, %44
  ret void
}